; ModuleID = '21/242.c'
source_filename = "21/242.c"
target datalayout = "e-m:e-p270:32:32-p271:32:32-p272:64:64-i64:64-f80:128-n8:16:32:64-S128"
target triple = "x86_64-pc-linux-gnu"

@.str = private unnamed_addr constant [3 x i8] c"%d\00", align 1
@.str.1 = private unnamed_addr constant [2 x i8] c",\00", align 1

; Function Attrs: noinline nounwind uwtable
define dso_local i32 @main() #0 {
  %1 = alloca i32, align 4
  %2 = alloca [300 x i32], align 16
  %3 = alloca float, align 4
  %4 = alloca float, align 4
  %5 = alloca float, align 4
  %6 = alloca i32, align 4
  %7 = alloca i32, align 4
  %8 = alloca i32, align 4
  store i32 0, i32* %1, align 4
  store float 0.000000e+00, float* %3, align 4
  store float 0.000000e+00, float* %5, align 4
  store i32 0, i32* %8, align 4
  %9 = call i32 (i8*, ...) @__isoc99_scanf(i8* getelementptr inbounds ([3 x i8], [3 x i8]* @.str, i64 0, i64 0), i32* %7)
  store i32 0, i32* %6, align 4
  br label %10

10:                                               ; preds = %20, %0
  %11 = load i32, i32* %6, align 4
  %12 = load i32, i32* %7, align 4
  %13 = icmp slt i32 %11, %12
  br i1 %13, label %14, label %23

14:                                               ; preds = %10
  %15 = getelementptr inbounds [300 x i32], [300 x i32]* %2, i64 0, i64 0
  %16 = load i32, i32* %6, align 4
  %17 = sext i32 %16 to i64
  %18 = getelementptr inbounds i32, i32* %15, i64 %17
  %19 = call i32 (i8*, ...) @__isoc99_scanf(i8* getelementptr inbounds ([3 x i8], [3 x i8]* @.str, i64 0, i64 0), i32* %18)
  br label %20

20:                                               ; preds = %14
  %21 = load i32, i32* %6, align 4
  %22 = add nsw i32 %21, 1
  store i32 %22, i32* %6, align 4
  br label %10

23:                                               ; preds = %10
  store i32 0, i32* %6, align 4
  br label %24

24:                                               ; preds = %36, %23
  %25 = load i32, i32* %6, align 4
  %26 = load i32, i32* %7, align 4
  %27 = icmp slt i32 %25, %26
  br i1 %27, label %28, label %39

28:                                               ; preds = %24
  %29 = load i32, i32* %6, align 4
  %30 = sext i32 %29 to i64
  %31 = getelementptr inbounds [300 x i32], [300 x i32]* %2, i64 0, i64 %30
  %32 = load i32, i32* %31, align 4
  %33 = sitofp i32 %32 to float
  %34 = load float, float* %3, align 4
  %35 = fadd float %34, %33
  store float %35, float* %3, align 4
  br label %36

36:                                               ; preds = %28
  %37 = load i32, i32* %6, align 4
  %38 = add nsw i32 %37, 1
  store i32 %38, i32* %6, align 4
  br label %24

39:                                               ; preds = %24
  %40 = load i32, i32* %7, align 4
  %41 = sitofp i32 %40 to float
  %42 = load float, float* %3, align 4
  %43 = fdiv float %42, %41
  store float %43, float* %3, align 4
  store i32 0, i32* %6, align 4
  br label %44

44:                                               ; preds = %65, %39
  %45 = load i32, i32* %6, align 4
  %46 = load i32, i32* %7, align 4
  %47 = icmp slt i32 %45, %46
  br i1 %47, label %48, label %68

48:                                               ; preds = %44
  %49 = load float, float* %3, align 4
  %50 = load i32, i32* %6, align 4
  %51 = sext i32 %50 to i64
  %52 = getelementptr inbounds [300 x i32], [300 x i32]* %2, i64 0, i64 %51
  %53 = load i32, i32* %52, align 4
  %54 = sitofp i32 %53 to float
  %55 = fsub float %49, %54
  %56 = fpext float %55 to double
  %57 = call double @llvm.fabs.f64(double %56)
  %58 = fptrunc double %57 to float
  store float %58, float* %4, align 4
  %59 = load float, float* %4, align 4
  %60 = load float, float* %5, align 4
  %61 = fcmp ogt float %59, %60
  br i1 %61, label %62, label %64

62:                                               ; preds = %48
  %63 = load float, float* %4, align 4
  store float %63, float* %5, align 4
  br label %64

64:                                               ; preds = %62, %48
  br label %65

65:                                               ; preds = %64
  %66 = load i32, i32* %6, align 4
  %67 = add nsw i32 %66, 1
  store i32 %67, i32* %6, align 4
  br label %44

68:                                               ; preds = %44
  store i32 0, i32* %6, align 4
  br label %69

69:                                               ; preds = %101, %68
  %70 = load i32, i32* %6, align 4
  %71 = load i32, i32* %7, align 4
  %72 = icmp slt i32 %70, %71
  br i1 %72, label %73, label %104

73:                                               ; preds = %69
  %74 = load i32, i32* %6, align 4
  %75 = sext i32 %74 to i64
  %76 = getelementptr inbounds [300 x i32], [300 x i32]* %2, i64 0, i64 %75
  %77 = load i32, i32* %76, align 4
  %78 = sitofp i32 %77 to float
  %79 = load float, float* %3, align 4
  %80 = fsub float %78, %79
  %81 = fpext float %80 to double
  %82 = call double @llvm.fabs.f64(double %81)
  %83 = load float, float* %5, align 4
  %84 = fpext float %83 to double
  %85 = fsub double %82, %84
  %86 = call double @llvm.fabs.f64(double %85)
  %87 = fcmp ole double %86, 1.000000e-03
  br i1 %87, label %88, label %100

88:                                               ; preds = %73
  %89 = load i32, i32* %8, align 4
  %90 = icmp eq i32 %89, 0
  br i1 %90, label %91, label %92

91:                                               ; preds = %88
  store i32 1, i32* %8, align 4
  br label %94

92:                                               ; preds = %88
  %93 = call i32 (i8*, ...) @printf(i8* getelementptr inbounds ([2 x i8], [2 x i8]* @.str.1, i64 0, i64 0))
  br label %94

94:                                               ; preds = %92, %91
  %95 = load i32, i32* %6, align 4
  %96 = sext i32 %95 to i64
  %97 = getelementptr inbounds [300 x i32], [300 x i32]* %2, i64 0, i64 %96
  %98 = load i32, i32* %97, align 4
  %99 = call i32 (i8*, ...) @printf(i8* getelementptr inbounds ([3 x i8], [3 x i8]* @.str, i64 0, i64 0), i32 %98)
  br label %100

100:                                              ; preds = %94, %73
  br label %101

101:                                              ; preds = %100
  %102 = load i32, i32* %6, align 4
  %103 = add nsw i32 %102, 1
  store i32 %103, i32* %6, align 4
  br label %69

104:                                              ; preds = %69
  ret i32 1
}

declare dso_local i32 @__isoc99_scanf(i8*, ...) #1

; Function Attrs: nounwind readnone speculatable willreturn
declare double @llvm.fabs.f64(double) #2

declare dso_local i32 @printf(i8*, ...) #1


!llvm.module.flags = !{!0}
!llvm.ident = !{!1}

!0 = !{i32 1, !"wchar_size", i32 4}
!1 = !{!"clang version 10.0.0-4ubuntu1 "}
